Certificate:
    Data:
        Version: 3 (0x2)
        Serial Number:
            02:c5:9c:16:8c:83:14:cb:e1:0f:48:25:f3:d0:36:1d:fa:36:f1:9b
        Signature Algorithm: ecdsa-with-SHA256
        Issuer: CN = NTS ROOT R1, emailAddress = NTS_ROOT_R1@gmail.com, O = NTS_ROOT_R1, L = Mumbai, C = IN
        Validity
            Not Before: Mar 26 13:58:48 2023 GMT
            Not After : Mar 25 13:58:48 2024 GMT
        Subject: CN = NTS CA 1R3, emailAddress = NTS_CA_1R3@gmail.com, O = NTS_CA_1R3, L = Mumbai, C = IN
        Subject Public Key Info:
            Public Key Algorithm: rsaEncryption
                RSA Public-Key: (2048 bit)
                Modulus:
                    00:ab:d6:a0:5a:26:2a:8e:71:01:9d:59:75:0d:4d:
                    bf:a4:97:eb:75:21:01:b3:2d:f2:92:6f:55:d1:24:
                    f0:02:cd:38:83:43:40:8f:2f:2d:20:a7:4d:53:09:
                    5c:32:c1:a8:47:a4:78:dd:63:15:ab:eb:79:e4:36:
                    5d:b2:c4:d1:30:db:5b:0c:51:80:f5:e3:9d:a1:5f:
                    5b:d8:09:2c:73:35:b4:30:e0:b3:2e:fd:33:13:92:
                    9c:e8:c1:f7:12:b0:02:6c:09:19:8f:d9:84:41:e2:
                    0c:b9:f6:79:be:31:bd:73:2d:cc:9e:db:ab:9d:e6:
                    5e:63:3d:28:7a:41:49:89:dd:7f:41:32:c6:e5:03:
                    e0:f9:c4:6e:c4:b8:ac:2f:e0:b3:63:e4:ae:5d:eb:
                    f4:f9:5a:31:41:50:f5:6d:71:ad:74:7c:35:7f:78:
                    a3:68:00:fb:cc:70:e0:a5:8f:c9:ae:7d:57:cf:47:
                    5a:1a:62:0b:6f:b1:92:9c:80:f4:cb:73:ee:db:fb:
                    25:5e:a1:13:6a:37:16:be:79:e4:f5:24:10:23:00:
                    d0:6d:a2:c4:99:0a:03:59:5d:5f:f2:3b:b3:4d:d3:
                    54:b0:d8:a5:a7:54:21:b0:b5:6a:c5:46:b3:4b:f2:
                    c2:49:f3:84:74:4c:38:a4:c8:f6:8e:cf:86:95:d7:
                    49:53
                Exponent: 65537 (0x10001)
        X509v3 extensions:
            X509v3 Authority Key Identifier: 
                DirName:/CN=NTS ROOT R1/emailAddress=NTS_ROOT_R1@gmail.com/O=NTS_ROOT_R1/L=Mumbai/C=IN
                serial:79:15:4A:93:41:72:E8:34:C1:3C:62:FE:10:67:06:1E:4C:78:BB:D2

            X509v3 Basic Constraints: 
                CA:TRUE
            X509v3 Key Usage: critical
                Certificate Sign, CRL Sign
    Signature Algorithm: ecdsa-with-SHA256
         30:81:84:02:40:15:80:86:27:59:bc:54:c1:a0:3f:94:ad:d6:
         41:e2:1b:c7:79:d1:57:2b:b2:67:07:1b:3e:12:87:1c:c0:d3:
         59:f3:f7:4a:b4:8a:59:fe:63:6e:9f:fb:5e:40:82:3a:23:b0:
         24:35:86:14:db:ee:48:e1:77:b1:0a:36:f9:26:01:02:40:0c:
         86:01:e4:16:17:6e:db:78:6c:89:f7:86:f6:0a:83:e7:4f:bf:
         11:ed:7c:60:d7:f7:42:43:bb:aa:34:85:9e:87:ff:8b:42:2b:
         74:5d:c3:8d:f7:09:c3:ba:6e:5d:6f:4d:02:e7:d8:f2:ca:58:
         93:8a:ab:cb:fd:85:db:29:24
-----BEGIN CERTIFICATE-----
MIIDpzCCAwygAwIBAgIUAsWcFoyDFMvhD0gl89A2Hfo28ZswCgYIKoZIzj0EAwIw
cDEUMBIGA1UEAwwLTlRTIFJPT1QgUjExJDAiBgkqhkiG9w0BCQEWFU5UU19ST09U
X1IxQGdtYWlsLmNvbTEUMBIGA1UECgwLTlRTX1JPT1RfUjExDzANBgNVBAcMBk11
bWJhaTELMAkGA1UEBhMCSU4wHhcNMjMwMzI2MTM1ODQ4WhcNMjQwMzI1MTM1ODQ4
WjBtMRMwEQYDVQQDDApOVFMgQ0EgMVIzMSMwIQYJKoZIhvcNAQkBFhROVFNfQ0Ff
MVIzQGdtYWlsLmNvbTETMBEGA1UECgwKTlRTX0NBXzFSMzEPMA0GA1UEBwwGTXVt
YmFpMQswCQYDVQQGEwJJTjCCASIwDQYJKoZIhvcNAQEBBQADggEPADCCAQoCggEB
AKvWoFomKo5xAZ1ZdQ1Nv6SX63UhAbMt8pJvVdEk8ALNOINDQI8vLSCnTVMJXDLB
qEekeN1jFavreeQ2XbLE0TDbWwxRgPXjnaFfW9gJLHM1tDDgsy79MxOSnOjB9xKw
AmwJGY/ZhEHiDLn2eb4xvXMtzJ7bq53mXmM9KHpBSYndf0EyxuUD4PnEbsS4rC/g
s2Pkrl3r9PlaMUFQ9W1xrXR8NX94o2gA+8xw4KWPya59V89HWhpiC2+xkpyA9Mtz
7tv7JV6hE2o3Fr555PUkECMA0G2ixJkKA1ldX/I7s03TVLDYpadUIbC1asVGs0vy
wknzhHRMOKTI9o7PhpXXSVMCAwEAAaOBuzCBuDCBlwYDVR0jBIGPMIGMoXSkcjBw
MRQwEgYDVQQDDAtOVFMgUk9PVCBSMTEkMCIGCSqGSIb3DQEJARYVTlRTX1JPT1Rf
UjFAZ21haWwuY29tMRQwEgYDVQQKDAtOVFNfUk9PVF9SMTEPMA0GA1UEBwwGTXVt
YmFpMQswCQYDVQQGEwJJToIUeRVKk0Fy6DTBPGL+EGcGHkx4u9IwDAYDVR0TBAUw
AwEB/zAOBgNVHQ8BAf8EBAMCAQYwCgYIKoZIzj0EAwIDgYgAMIGEAkAVgIYnWbxU
waA/lK3WQeIbx3nRVyuyZwcbPhKHHMDTWfP3SrSKWf5jbp/7XkCCOiOwJDWGFNvu
SOF3sQo2+SYBAkAMhgHkFhdu23hsifeG9gqD50+/Ee18YNf3QkO7qjSFnof/i0Ir
dF3DjfcJw7puXW9NAufY8spYk4qry/2F2ykk
-----END CERTIFICATE-----
Certificate:
    Data:
        Version: 3 (0x2)
        Serial Number:
            79:15:4a:93:41:72:e8:34:c1:3c:62:fe:10:67:06:1e:4c:78:bb:d2
        Signature Algorithm: ecdsa-with-SHA256
        Issuer: CN = NTS ROOT R1, emailAddress = NTS_ROOT_R1@gmail.com, O = NTS_ROOT_R1, L = Mumbai, C = IN
        Validity
            Not Before: Mar 26 13:58:48 2023 GMT
            Not After : Mar 25 13:58:48 2024 GMT
        Subject: CN = NTS ROOT R1, emailAddress = NTS_ROOT_R1@gmail.com, O = NTS_ROOT_R1, L = Mumbai, C = IN
        Subject Public Key Info:
            Public Key Algorithm: id-ecPublicKey
                Public-Key: (512 bit)
                pub:
                    04:02:70:a7:26:19:b9:96:4e:77:ee:f7:71:d3:95:
                    2a:37:c0:b2:a7:8a:0c:ea:bb:26:81:60:a3:c4:2a:
                    2a:03:b6:59:a3:46:d7:47:82:fd:ac:99:9b:e1:f3:
                    97:de:a9:21:17:52:bd:7d:83:8b:ca:07:a2:32:fe:
                    ff:4f:18:33:95:14:1c:8e:27:6e:e2:2a:19:73:f8:
                    35:4c:83:36:67:eb:3c:53:d0:1a:ca:3b:b5:9b:06:
                    58:cd:e0:e3:03:f3:50:ff:2e:22:a6:f4:11:47:92:
                    97:a2:6b:8c:3f:99:30:fe:98:22:25:8a:5c:6a:ea:
                    1d:d9:8e:86:be:0f:1c:b6:36
                ASN1 OID: brainpoolP512r1
        X509v3 extensions:
            X509v3 Authority Key Identifier: 
                DirName:/CN=NTS ROOT R1/emailAddress=NTS_ROOT_R1@gmail.com/O=NTS_ROOT_R1/L=Mumbai/C=IN
                serial:79:15:4A:93:41:72:E8:34:C1:3C:62:FE:10:67:06:1E:4C:78:BB:D2

            X509v3 Basic Constraints: 
                CA:TRUE
            X509v3 Key Usage: critical
                Certificate Sign, CRL Sign
    Signature Algorithm: ecdsa-with-SHA256
         30:81:84:02:40:3f:b0:5f:cb:69:48:59:d2:97:c6:e2:78:88:
         08:1c:63:c4:a4:e9:fc:18:1a:58:84:eb:15:af:be:33:20:72:
         d5:07:ad:e4:9b:2c:2f:65:b0:16:36:2c:3e:d5:f5:7d:5d:49:
         35:8e:b1:53:af:9d:9b:fe:20:07:2c:26:0b:b7:e2:02:40:73:
         37:ec:77:80:00:d4:c4:8f:c6:65:cb:ae:3b:27:57:6b:9b:82:
         26:d5:ff:26:69:63:15:a5:d8:61:cc:b2:80:35:bd:be:f7:c4:
         4f:be:02:2f:b4:e7:a9:c5:50:8d:1f:96:2b:41:b8:7d:8c:d9:
         7c:ef:a4:2f:53:46:f5:42:ac
-----BEGIN CERTIFICATE-----
MIIDIjCCAoegAwIBAgIUeRVKk0Fy6DTBPGL+EGcGHkx4u9IwCgYIKoZIzj0EAwIw
cDEUMBIGA1UEAwwLTlRTIFJPT1QgUjExJDAiBgkqhkiG9w0BCQEWFU5UU19ST09U
X1IxQGdtYWlsLmNvbTEUMBIGA1UECgwLTlRTX1JPT1RfUjExDzANBgNVBAcMBk11
bWJhaTELMAkGA1UEBhMCSU4wHhcNMjMwMzI2MTM1ODQ4WhcNMjQwMzI1MTM1ODQ4
WjBwMRQwEgYDVQQDDAtOVFMgUk9PVCBSMTEkMCIGCSqGSIb3DQEJARYVTlRTX1JP
T1RfUjFAZ21haWwuY29tMRQwEgYDVQQKDAtOVFNfUk9PVF9SMTEPMA0GA1UEBwwG
TXVtYmFpMQswCQYDVQQGEwJJTjCBmzAUBgcqhkjOPQIBBgkrJAMDAggBAQ0DgYIA
BAJwpyYZuZZOd+73cdOVKjfAsqeKDOq7JoFgo8QqKgO2WaNG10eC/ayZm+Hzl96p
IRdSvX2Di8oHojL+/08YM5UUHI4nbuIqGXP4NUyDNmfrPFPQGso7tZsGWM3g4wPz
UP8uIqb0EUeSl6JrjD+ZMP6YIiWKXGrqHdmOhr4PHLY2o4G7MIG4MIGXBgNVHSME
gY8wgYyhdKRyMHAxFDASBgNVBAMMC05UUyBST09UIFIxMSQwIgYJKoZIhvcNAQkB
FhVOVFNfUk9PVF9SMUBnbWFpbC5jb20xFDASBgNVBAoMC05UU19ST09UX1IxMQ8w
DQYDVQQHDAZNdW1iYWkxCzAJBgNVBAYTAklOghR5FUqTQXLoNME8Yv4QZwYeTHi7
0jAMBgNVHRMEBTADAQH/MA4GA1UdDwEB/wQEAwIBBjAKBggqhkjOPQQDAgOBiAAw
gYQCQD+wX8tpSFnSl8bieIgIHGPEpOn8GBpYhOsVr74zIHLVB63kmywvZbAWNiw+
1fV9XUk1jrFTr52b/iAHLCYLt+ICQHM37HeAANTEj8Zly647J1drm4Im1f8maWMV
pdhhzLKANb2+98RPvgIvtOepxVCNH5YrQbh9jNl876QvU0b1Qqw=
-----END CERTIFICATE-----
